target datalayout = "e-m:e-p270:32:32-p271:32:32-p272:64:64-i64:64-i128:128-f80:128-n8:16:32:64-S128"
target triple = "x86_64-pc-linux-gnu"

%class.Node = type <{ ptr, ptr, ptr, i32, i32, i32, i32, i32, i32, i32, [4 x i8] }>
%class.VPointer = type { ptr, ptr, ptr, ptr, i32, i32, ptr, ptr, i8, i32 }

; Function Attrs: mustprogress nounwind uwtable
define linkonce_odr hidden noundef ptr @_ZNK8VPointer5invarEv(ptr noundef nonnull align 8 dereferenceable(64) %0) #1 comdat align 2 {
  %2 = alloca ptr, align 8
  store ptr %0, ptr %2, align 8
  %3 = load ptr, ptr %2, align 8
  %4 = getelementptr inbounds %class.VPointer, ptr %3, i32 0, i32 6
  %5 = load ptr, ptr %4, align 8
  ret ptr %5
}

; Function Attrs: mustprogress nounwind uwtable
define linkonce_odr hidden noundef i32 @_ZNK8VPointer14scale_in_bytesEv(ptr noundef nonnull align 8 dereferenceable(64) %0) #1 comdat align 2 {
  %2 = alloca ptr, align 8
  store ptr %0, ptr %2, align 8
  %3 = load ptr, ptr %2, align 8
  %4 = getelementptr inbounds %class.VPointer, ptr %3, i32 0, i32 4
  %5 = load i32, ptr %4, align 8
  ret i32 %5
}

; Function Attrs: mustprogress nounwind uwtable
define linkonce_odr hidden noundef ptr @_ZNK8VPointer4baseEv(ptr noundef nonnull align 8 dereferenceable(64) %0) #1 comdat align 2 {
  %2 = alloca ptr, align 8
  store ptr %0, ptr %2, align 8
  %3 = load ptr, ptr %2, align 8
  %4 = getelementptr inbounds %class.VPointer, ptr %3, i32 0, i32 2
  %5 = load ptr, ptr %4, align 8
  ret ptr %5
}

; Function Attrs: mustprogress nounwind uwtable
define linkonce_odr hidden noundef ptr @_ZNK8VPointer3memEv(ptr noundef nonnull align 8 dereferenceable(64) %0) #1 comdat align 2 {
  %2 = alloca ptr, align 8
  store ptr %0, ptr %2, align 8
  %3 = load ptr, ptr %2, align 8
  %4 = getelementptr inbounds %class.VPointer, ptr %3, i32 0, i32 0
  %5 = load ptr, ptr %4, align 8
  ret ptr %5
}

; Function Attrs: mustprogress nounwind uwtable
define linkonce_odr hidden noundef i32 @_ZNK8VPointer15offset_in_bytesEv(ptr noundef nonnull align 8 dereferenceable(64) %0) #1 comdat align 2 {
  %2 = alloca ptr, align 8
  store ptr %0, ptr %2, align 8
  %3 = load ptr, ptr %2, align 8
  %4 = getelementptr inbounds %class.VPointer, ptr %3, i32 0, i32 5
  %5 = load i32, ptr %4, align 4
  ret i32 %5
}

; Function Attrs: mustprogress nounwind uwtable
define hidden noundef i32 @_ZN8VPointer21cmp_for_sort_by_groupEPPKS_S2_(ptr noundef %0, ptr noundef %1) #1 align 2 {
  %3 = alloca i32, align 4
  %4 = alloca ptr, align 8
  %5 = alloca ptr, align 8
  %6 = alloca ptr, align 8
  %7 = alloca ptr, align 8
  %8 = alloca i32, align 4
  %9 = alloca i32, align 4
  store ptr %0, ptr %4, align 8
  store ptr %1, ptr %5, align 8
  %10 = load ptr, ptr %4, align 8
  %11 = load ptr, ptr %10, align 8
  store ptr %11, ptr %6, align 8
  %12 = load ptr, ptr %5, align 8
  %13 = load ptr, ptr %12, align 8
  store ptr %13, ptr %7, align 8
  %14 = load ptr, ptr %6, align 8
  %15 = call noundef ptr @_ZNK8VPointer4baseEv(ptr noundef nonnull align 8 dereferenceable(64) %14)
  %16 = getelementptr inbounds %class.Node, ptr %15, i32 0, i32 7
  %17 = load i32, ptr %16, align 8
  %18 = load ptr, ptr %7, align 8
  %19 = call noundef ptr @_ZNK8VPointer4baseEv(ptr noundef nonnull align 8 dereferenceable(64) %18)
  %20 = getelementptr inbounds %class.Node, ptr %19, i32 0, i32 7
  %21 = load i32, ptr %20, align 8
  %22 = icmp ult i32 %17, %21
  br i1 %22, label %23, label %24

23:                                               ; preds = %2
  store i32 -1, ptr %3, align 4
  br label %112

24:                                               ; preds = %2
  %25 = load ptr, ptr %6, align 8
  %26 = call noundef ptr @_ZNK8VPointer4baseEv(ptr noundef nonnull align 8 dereferenceable(64) %25)
  %27 = getelementptr inbounds %class.Node, ptr %26, i32 0, i32 7
  %28 = load i32, ptr %27, align 8
  %29 = load ptr, ptr %7, align 8
  %30 = call noundef ptr @_ZNK8VPointer4baseEv(ptr noundef nonnull align 8 dereferenceable(64) %29)
  %31 = getelementptr inbounds %class.Node, ptr %30, i32 0, i32 7
  %32 = load i32, ptr %31, align 8
  %33 = icmp ugt i32 %28, %32
  br i1 %33, label %34, label %35

34:                                               ; preds = %24
  store i32 1, ptr %3, align 4
  br label %112

35:                                               ; preds = %24
  %36 = load ptr, ptr %6, align 8
  %37 = call noundef ptr @_ZNK8VPointer3memEv(ptr noundef nonnull align 8 dereferenceable(64) %36)
  %38 = load ptr, ptr %37, align 8
  %39 = getelementptr inbounds ptr, ptr %38, i64 0
  %40 = load ptr, ptr %39, align 8
  %41 = call noundef i32 %40(ptr noundef nonnull align 8 dereferenceable(52) %37)
  %42 = load ptr, ptr %7, align 8
  %43 = call noundef ptr @_ZNK8VPointer3memEv(ptr noundef nonnull align 8 dereferenceable(64) %42)
  %44 = load ptr, ptr %43, align 8
  %45 = getelementptr inbounds ptr, ptr %44, i64 0
  %46 = load ptr, ptr %45, align 8
  %47 = call noundef i32 %46(ptr noundef nonnull align 8 dereferenceable(52) %43)
  %48 = icmp slt i32 %41, %47
  br i1 %48, label %49, label %50

49:                                               ; preds = %35
  store i32 -1, ptr %3, align 4
  br label %112

50:                                               ; preds = %35
  %51 = load ptr, ptr %6, align 8
  %52 = call noundef ptr @_ZNK8VPointer3memEv(ptr noundef nonnull align 8 dereferenceable(64) %51)
  %53 = load ptr, ptr %52, align 8
  %54 = getelementptr inbounds ptr, ptr %53, i64 0
  %55 = load ptr, ptr %54, align 8
  %56 = call noundef i32 %55(ptr noundef nonnull align 8 dereferenceable(52) %52)
  %57 = load ptr, ptr %7, align 8
  %58 = call noundef ptr @_ZNK8VPointer3memEv(ptr noundef nonnull align 8 dereferenceable(64) %57)
  %59 = load ptr, ptr %58, align 8
  %60 = getelementptr inbounds ptr, ptr %59, i64 0
  %61 = load ptr, ptr %60, align 8
  %62 = call noundef i32 %61(ptr noundef nonnull align 8 dereferenceable(52) %58)
  %63 = icmp sgt i32 %56, %62
  br i1 %63, label %64, label %65

64:                                               ; preds = %50
  store i32 1, ptr %3, align 4
  br label %112

65:                                               ; preds = %50
  %66 = load ptr, ptr %6, align 8
  %67 = call noundef i32 @_ZNK8VPointer14scale_in_bytesEv(ptr noundef nonnull align 8 dereferenceable(64) %66)
  %68 = load ptr, ptr %7, align 8
  %69 = call noundef i32 @_ZNK8VPointer14scale_in_bytesEv(ptr noundef nonnull align 8 dereferenceable(64) %68)
  %70 = icmp slt i32 %67, %69
  br i1 %70, label %71, label %72

71:                                               ; preds = %65
  store i32 -1, ptr %3, align 4
  br label %112

72:                                               ; preds = %65
  %73 = load ptr, ptr %6, align 8
  %74 = call noundef i32 @_ZNK8VPointer14scale_in_bytesEv(ptr noundef nonnull align 8 dereferenceable(64) %73)
  %75 = load ptr, ptr %7, align 8
  %76 = call noundef i32 @_ZNK8VPointer14scale_in_bytesEv(ptr noundef nonnull align 8 dereferenceable(64) %75)
  %77 = icmp sgt i32 %74, %76
  br i1 %77, label %78, label %79

78:                                               ; preds = %72
  store i32 1, ptr %3, align 4
  br label %112

79:                                               ; preds = %72
  %80 = load ptr, ptr %6, align 8
  %81 = call noundef ptr @_ZNK8VPointer5invarEv(ptr noundef nonnull align 8 dereferenceable(64) %80)
  %82 = icmp eq ptr %81, null
  br i1 %82, label %83, label %84

83:                                               ; preds = %79
  br label %89

84:                                               ; preds = %79
  %85 = load ptr, ptr %6, align 8
  %86 = call noundef ptr @_ZNK8VPointer5invarEv(ptr noundef nonnull align 8 dereferenceable(64) %85)
  %87 = getelementptr inbounds %class.Node, ptr %86, i32 0, i32 7
  %88 = load i32, ptr %87, align 8
  br label %89

89:                                               ; preds = %84, %83
  %90 = phi i32 [ 0, %83 ], [ %88, %84 ]
  store i32 %90, ptr %8, align 4
  %91 = load ptr, ptr %7, align 8
  %92 = call noundef ptr @_ZNK8VPointer5invarEv(ptr noundef nonnull align 8 dereferenceable(64) %91)
  %93 = icmp eq ptr %92, null
  br i1 %93, label %94, label %95

94:                                               ; preds = %89
  br label %100

95:                                               ; preds = %89
  %96 = load ptr, ptr %7, align 8
  %97 = call noundef ptr @_ZNK8VPointer5invarEv(ptr noundef nonnull align 8 dereferenceable(64) %96)
  %98 = getelementptr inbounds %class.Node, ptr %97, i32 0, i32 7
  %99 = load i32, ptr %98, align 8
  br label %100

100:                                              ; preds = %95, %94
  %101 = phi i32 [ 0, %94 ], [ %99, %95 ]
  store i32 %101, ptr %9, align 4
  %102 = load i32, ptr %8, align 4
  %103 = load i32, ptr %9, align 4
  %104 = icmp slt i32 %102, %103
  br i1 %104, label %105, label %106

105:                                              ; preds = %100
  store i32 -1, ptr %3, align 4
  br label %112

106:                                              ; preds = %100
  %107 = load i32, ptr %8, align 4
  %108 = load i32, ptr %9, align 4
  %109 = icmp sgt i32 %107, %108
  br i1 %109, label %110, label %111

110:                                              ; preds = %106
  store i32 1, ptr %3, align 4
  br label %112

111:                                              ; preds = %106
  store i32 0, ptr %3, align 4
  br label %112

112:                                              ; preds = %111, %110, %105, %78, %71, %64, %49, %34, %23
  %113 = load i32, ptr %3, align 4
  ret i32 %113
}

; Function Attrs: mustprogress nounwind uwtable
define hidden noundef i32 @_ZN8VPointer12cmp_for_sortEPPKS_S2_(ptr noundef %0, ptr noundef %1) #1 align 2 {
  %3 = alloca i32, align 4
  %4 = alloca ptr, align 8
  %5 = alloca ptr, align 8
  %6 = alloca i32, align 4
  %7 = alloca ptr, align 8
  %8 = alloca ptr, align 8
  store ptr %0, ptr %4, align 8
  store ptr %1, ptr %5, align 8
  %9 = load ptr, ptr %4, align 8
  %10 = load ptr, ptr %5, align 8
  %11 = call noundef i32 @_ZN8VPointer21cmp_for_sort_by_groupEPPKS_S2_(ptr noundef %9, ptr noundef %10)
  store i32 %11, ptr %6, align 4
  %12 = load i32, ptr %6, align 4
  %13 = icmp ne i32 %12, 0
  br i1 %13, label %14, label %16

14:                                               ; preds = %2
  %15 = load i32, ptr %6, align 4
  store i32 %15, ptr %3, align 4
  br label %57

16:                                               ; preds = %2
  %17 = load ptr, ptr %4, align 8
  %18 = load ptr, ptr %17, align 8
  store ptr %18, ptr %7, align 8
  %19 = load ptr, ptr %5, align 8
  %20 = load ptr, ptr %19, align 8
  store ptr %20, ptr %8, align 8
  %21 = load ptr, ptr %7, align 8
  %22 = call noundef i32 @_ZNK8VPointer15offset_in_bytesEv(ptr noundef nonnull align 8 dereferenceable(64) %21)
  %23 = load ptr, ptr %8, align 8
  %24 = call noundef i32 @_ZNK8VPointer15offset_in_bytesEv(ptr noundef nonnull align 8 dereferenceable(64) %23)
  %25 = icmp slt i32 %22, %24
  br i1 %25, label %26, label %27

26:                                               ; preds = %16
  store i32 -1, ptr %3, align 4
  br label %57

27:                                               ; preds = %16
  %28 = load ptr, ptr %7, align 8
  %29 = call noundef i32 @_ZNK8VPointer15offset_in_bytesEv(ptr noundef nonnull align 8 dereferenceable(64) %28)
  %30 = load ptr, ptr %8, align 8
  %31 = call noundef i32 @_ZNK8VPointer15offset_in_bytesEv(ptr noundef nonnull align 8 dereferenceable(64) %30)
  %32 = icmp sgt i32 %29, %31
  br i1 %32, label %33, label %34

33:                                               ; preds = %27
  store i32 1, ptr %3, align 4
  br label %57

34:                                               ; preds = %27
  %35 = load ptr, ptr %7, align 8
  %36 = call noundef ptr @_ZNK8VPointer3memEv(ptr noundef nonnull align 8 dereferenceable(64) %35)
  %37 = getelementptr inbounds %class.Node, ptr %36, i32 0, i32 7
  %38 = load i32, ptr %37, align 8
  %39 = load ptr, ptr %8, align 8
  %40 = call noundef ptr @_ZNK8VPointer3memEv(ptr noundef nonnull align 8 dereferenceable(64) %39)
  %41 = getelementptr inbounds %class.Node, ptr %40, i32 0, i32 7
  %42 = load i32, ptr %41, align 8
  %43 = icmp ult i32 %38, %42
  br i1 %43, label %44, label %45

44:                                               ; preds = %34
  store i32 -1, ptr %3, align 4
  br label %57

45:                                               ; preds = %34
  %46 = load ptr, ptr %7, align 8
  %47 = call noundef ptr @_ZNK8VPointer3memEv(ptr noundef nonnull align 8 dereferenceable(64) %46)
  %48 = getelementptr inbounds %class.Node, ptr %47, i32 0, i32 7
  %49 = load i32, ptr %48, align 8
  %50 = load ptr, ptr %8, align 8
  %51 = call noundef ptr @_ZNK8VPointer3memEv(ptr noundef nonnull align 8 dereferenceable(64) %50)
  %52 = getelementptr inbounds %class.Node, ptr %51, i32 0, i32 7
  %53 = load i32, ptr %52, align 8
  %54 = icmp ugt i32 %49, %53
  br i1 %54, label %55, label %56

55:                                               ; preds = %45
  store i32 1, ptr %3, align 4
  br label %57

56:                                               ; preds = %45
  store i32 0, ptr %3, align 4
  br label %57

57:                                               ; preds = %56, %55, %44, %33, %26, %14
  %58 = load i32, ptr %3, align 4
  ret i32 %58
}