; Function Attrs: mustprogress nounwind uwtable
define hidden noundef range(i32 -1, 2) i32 @_ZN8VPointer12cmp_for_sortEPPKS_S2_(ptr nocapture noundef readonly %0, ptr nocapture noundef readonly %1) local_unnamed_addr #0 align 2 {
  %3 = load ptr, ptr %0, align 8
  %4 = load ptr, ptr %1, align 8
  %5 = getelementptr inbounds i8, ptr %3, i64 16
  %6 = load ptr, ptr %5, align 8
  %7 = getelementptr inbounds i8, ptr %6, i64 40
  %8 = load i32, ptr %7, align 8
  %9 = getelementptr inbounds i8, ptr %4, i64 16
  %10 = load ptr, ptr %9, align 8
  %11 = getelementptr inbounds i8, ptr %10, i64 40
  %12 = load i32, ptr %11, align 8
  %13 = icmp ult i32 %8, %12
  br i1 %13, label %_ZN8VPointer21cmp_for_sort_by_groupEPPKS_S2_.exit.thread, label %14

14:                                               ; preds = %2
  %15 = icmp ugt i32 %8, %12
  br i1 %15, label %_ZN8VPointer21cmp_for_sort_by_groupEPPKS_S2_.exit.thread, label %16

16:                                               ; preds = %14
  %17 = load ptr, ptr %3, align 8
  %18 = load ptr, ptr %17, align 8
  %19 = load ptr, ptr %18, align 8
  %20 = tail call noundef i32 %19(ptr noundef nonnull align 8 dereferenceable(52) %17) #13
  %21 = load ptr, ptr %4, align 8
  %22 = load ptr, ptr %21, align 8
  %23 = load ptr, ptr %22, align 8
  %24 = tail call noundef i32 %23(ptr noundef nonnull align 8 dereferenceable(52) %21) #13
  %25 = icmp slt i32 %20, %24
  br i1 %25, label %_ZN8VPointer21cmp_for_sort_by_groupEPPKS_S2_.exit.thread, label %26

26:                                               ; preds = %16
  %27 = load ptr, ptr %3, align 8
  %28 = load ptr, ptr %27, align 8
  %29 = load ptr, ptr %28, align 8
  %30 = tail call noundef i32 %29(ptr noundef nonnull align 8 dereferenceable(52) %27) #13
  %31 = load ptr, ptr %4, align 8
  %32 = load ptr, ptr %31, align 8
  %33 = load ptr, ptr %32, align 8
  %34 = tail call noundef i32 %33(ptr noundef nonnull align 8 dereferenceable(52) %31) #13
  %35 = icmp sgt i32 %30, %34
  br i1 %35, label %_ZN8VPointer21cmp_for_sort_by_groupEPPKS_S2_.exit.thread, label %36

36:                                               ; preds = %26
  %37 = getelementptr inbounds i8, ptr %3, i64 32
  %38 = load i32, ptr %37, align 8
  %39 = getelementptr inbounds i8, ptr %4, i64 32
  %40 = load i32, ptr %39, align 8
  %41 = icmp slt i32 %38, %40
  br i1 %41, label %_ZN8VPointer21cmp_for_sort_by_groupEPPKS_S2_.exit.thread, label %42

42:                                               ; preds = %36
  %43 = icmp sgt i32 %38, %40
  br i1 %43, label %_ZN8VPointer21cmp_for_sort_by_groupEPPKS_S2_.exit.thread, label %44

44:                                               ; preds = %42
  %45 = getelementptr inbounds i8, ptr %3, i64 40
  %46 = load ptr, ptr %45, align 8
  %47 = icmp eq ptr %46, null
  br i1 %47, label %51, label %48

48:                                               ; preds = %44
  %49 = getelementptr inbounds i8, ptr %46, i64 40
  %50 = load i32, ptr %49, align 8
  br label %51

51:                                               ; preds = %48, %44
  %52 = phi i32 [ %50, %48 ], [ 0, %44 ]
  %53 = getelementptr inbounds i8, ptr %4, i64 40
  %54 = load ptr, ptr %53, align 8
  %55 = icmp eq ptr %54, null
  br i1 %55, label %59, label %56

56:                                               ; preds = %51
  %57 = getelementptr inbounds i8, ptr %54, i64 40
  %58 = load i32, ptr %57, align 8
  br label %59

59:                                               ; preds = %56, %51
  %60 = phi i32 [ %58, %56 ], [ 0, %51 ]
  %61 = icmp slt i32 %52, %60
  br i1 %61, label %_ZN8VPointer21cmp_for_sort_by_groupEPPKS_S2_.exit.thread, label %_ZN8VPointer21cmp_for_sort_by_groupEPPKS_S2_.exit

_ZN8VPointer21cmp_for_sort_by_groupEPPKS_S2_.exit: ; preds = %59
  %.not = icmp sgt i32 %52, %60
  br i1 %.not, label %_ZN8VPointer21cmp_for_sort_by_groupEPPKS_S2_.exit.thread, label %62

62:                                               ; preds = %_ZN8VPointer21cmp_for_sort_by_groupEPPKS_S2_.exit
  %63 = load ptr, ptr %0, align 8
  %64 = load ptr, ptr %1, align 8
  %65 = getelementptr inbounds i8, ptr %63, i64 36
  %66 = load i32, ptr %65, align 4
  %67 = getelementptr inbounds i8, ptr %64, i64 36
  %68 = load i32, ptr %67, align 4
  %69 = icmp slt i32 %66, %68
  br i1 %69, label %_ZN8VPointer21cmp_for_sort_by_groupEPPKS_S2_.exit.thread, label %70

70:                                               ; preds = %62
  %71 = icmp sgt i32 %66, %68
  br i1 %71, label %_ZN8VPointer21cmp_for_sort_by_groupEPPKS_S2_.exit.thread, label %72

72:                                               ; preds = %70
  %73 = load ptr, ptr %63, align 8
  %74 = getelementptr inbounds i8, ptr %73, i64 40
  %75 = load i32, ptr %74, align 8
  %76 = load ptr, ptr %64, align 8
  %77 = getelementptr inbounds i8, ptr %76, i64 40
  %78 = load i32, ptr %77, align 8
  %79 = icmp ult i32 %75, %78
  br i1 %79, label %_ZN8VPointer21cmp_for_sort_by_groupEPPKS_S2_.exit.thread, label %80

80:                                               ; preds = %72
  %81 = icmp ugt i32 %75, %78
  %. = zext i1 %81 to i32
  br label %_ZN8VPointer21cmp_for_sort_by_groupEPPKS_S2_.exit.thread

_ZN8VPointer21cmp_for_sort_by_groupEPPKS_S2_.exit.thread: ; preds = %59, %42, %36, %26, %16, %14, %2, %80, %72, %70, %62, %_ZN8VPointer21cmp_for_sort_by_groupEPPKS_S2_.exit
  %.0 = phi i32 [ 1, %_ZN8VPointer21cmp_for_sort_by_groupEPPKS_S2_.exit ], [ -1, %62 ], [ 1, %70 ], [ -1, %72 ], [ %., %80 ], [ -1, %59 ], [ 1, %42 ], [ -1, %36 ], [ 1, %26 ], [ -1, %16 ], [ 1, %14 ], [ -1, %2 ]
  ret i32 %.0
}